; Function Attrs: mustprogress nofree norecurse nosync nounwind willreturn memory(argmem: readwrite) uwtable
define range(i32 -10, 1) i32 @fdt_move(ptr noundef readonly captures(none) %0, ptr noundef writeonly captures(none) %1, i32 noundef %2) local_unnamed_addr #6 {
  %4 = tail call i32 @fdt_ro_probe_(ptr noundef %0)
  %5 = icmp sgt i32 %4, -1
  br i1 %5, label %6, label %28

6:                                                ; preds = %3
  %7 = getelementptr inbounds nuw i8, ptr %0, i64 4
  %8 = load i8, ptr %7, align 1, !tbaa !3
  %9 = zext i8 %8 to i32
  %10 = shl nuw i32 %9, 24
  %11 = getelementptr inbounds nuw i8, ptr %0, i64 5
  %12 = load i8, ptr %11, align 1, !tbaa !3
  %13 = zext i8 %12 to i32
  %14 = shl nuw nsw i32 %13, 16
  %15 = or disjoint i32 %14, %10
  %16 = getelementptr inbounds nuw i8, ptr %0, i64 6
  %17 = load i8, ptr %16, align 1, !tbaa !3
  %18 = zext i8 %17 to i32
  %19 = shl nuw nsw i32 %18, 8
  %20 = or disjoint i32 %15, %19
  %21 = getelementptr inbounds nuw i8, ptr %0, i64 7
  %22 = load i8, ptr %21, align 1, !tbaa !3
  %23 = zext i8 %22 to i32
  %24 = or disjoint i32 %20, %23
  %25 = icmp ugt i32 %24, %2
  br i1 %25, label %28, label %26

26:                                               ; preds = %6
  %27 = zext i32 %24 to i64
  tail call void @llvm.memmove.p0.p0.i64(ptr align 1 %1, ptr nonnull align 1 %0, i64 %27, i1 false)
  br label %28

28:                                               ; preds = %3, %6, %26
  %.1 = phi i32 [ %4, %3 ], [ 0, %26 ], [ -3, %6 ]
  ret i32 %.1
}